target datalayout = "e-m:e-p270:32:32-p271:32:32-p272:64:64-i64:64-i128:128-f80:128-n8:16:32:64-S128"
target triple = "x86_64-pc-linux-gnu"

%struct.pmix_mca_base_framework_t = type { ptr, ptr, ptr, ptr, ptr, ptr, i32, i32, ptr, ptr, i32, i32, %struct.pmix_list_t, %struct.pmix_list_t }
%struct.pmix_list_t = type { %struct.pmix_object_t, %struct.pmix_list_item_t, i64 }
%struct.pmix_object_t = type { %union.pthread_mutex_t, ptr, i32, %struct.pmix_tma }
%union.pthread_mutex_t = type { %struct.__pthread_mutex_s }
%struct.__pthread_mutex_s = type { i32, i32, i32, i32, i32, i16, i16, %struct.__pthread_internal_list }
%struct.__pthread_internal_list = type { ptr, ptr }
%struct.pmix_tma = type { ptr, ptr, ptr, ptr, ptr, ptr, ptr, ptr }
%struct.pmix_list_item_t = type { %struct.pmix_object_t, ptr, ptr, i32 }
%struct.pmix_output_desc_t = type { i8, i8, i32, i8, i32, ptr, ptr, i32, ptr, i32, i8, i8, i8, i8, ptr, i32, i32 }
%struct.pmix_topology_t = type { ptr, ptr }

@pmix_bfrops_base_framework = external global %struct.pmix_mca_base_framework_t, align 8
@pmix_output_info = external global [0 x %struct.pmix_output_desc_t], align 8
@.str.40 = private unnamed_addr constant [31 x i8] c"pmix_bfrop_unpack: %d topology\00", align 1

; Function Attrs: nounwind uwtable
define i32 @pmix_bfrops_base_unpack_topology(ptr noundef %0, ptr noundef %1, ptr noundef %2, ptr noundef %3, i16 noundef zeroext %4) #0 {
  %6 = alloca i32, align 4
  %7 = alloca ptr, align 8
  %8 = alloca ptr, align 8
  %9 = alloca ptr, align 8
  %10 = alloca ptr, align 8
  %11 = alloca i16, align 2
  %12 = alloca ptr, align 8
  %13 = alloca i32, align 4
  %14 = alloca i32, align 4
  %15 = alloca i32, align 4
  %16 = alloca i32, align 4
  store ptr %0, ptr %7, align 8, !tbaa !3
  store ptr %1, ptr %8, align 8, !tbaa !8
  store ptr %2, ptr %9, align 8, !tbaa !8
  store ptr %3, ptr %10, align 8, !tbaa !9
  store i16 %4, ptr %11, align 2, !tbaa !11
  call void @llvm.lifetime.start.p0(i64 8, ptr %12) #11
  call void @llvm.lifetime.start.p0(i64 4, ptr %13) #11
  call void @llvm.lifetime.start.p0(i64 4, ptr %14) #11
  call void @llvm.lifetime.start.p0(i64 4, ptr %15) #11
  %17 = load i32, ptr getelementptr inbounds nuw (%struct.pmix_mca_base_framework_t, ptr @pmix_bfrops_base_framework, i32 0, i32 11), align 4, !tbaa !15
  %18 = icmp sge i32 %17, 0
  br i1 %18, label %19, label %33

19:                                               ; preds = %5
  %20 = load i32, ptr getelementptr inbounds nuw (%struct.pmix_mca_base_framework_t, ptr @pmix_bfrops_base_framework, i32 0, i32 11), align 4, !tbaa !15
  %21 = icmp slt i32 %20, 64
  br i1 %21, label %22, label %33

22:                                               ; preds = %19
  %23 = load i32, ptr getelementptr inbounds nuw (%struct.pmix_mca_base_framework_t, ptr @pmix_bfrops_base_framework, i32 0, i32 11), align 4, !tbaa !15
  %24 = sext i32 %23 to i64
  %25 = getelementptr inbounds [0 x %struct.pmix_output_desc_t], ptr @pmix_output_info, i64 0, i64 %24
  %26 = getelementptr inbounds nuw %struct.pmix_output_desc_t, ptr %25, i32 0, i32 2
  %27 = load i32, ptr %26, align 4, !tbaa !26
  %28 = icmp sge i32 %27, 20
  br i1 %28, label %29, label %33

29:                                               ; preds = %22
  %30 = load i32, ptr getelementptr inbounds nuw (%struct.pmix_mca_base_framework_t, ptr @pmix_bfrops_base_framework, i32 0, i32 11), align 4, !tbaa !15
  %31 = load ptr, ptr %10, align 8, !tbaa !9
  %32 = load i32, ptr %31, align 4, !tbaa !13
  call void (i32, ptr, ...) @pmix_output(i32 noundef %30, ptr noundef @.str.40, i32 noundef %32)
  br label %33

33:                                               ; preds = %29, %22, %19, %5
  %34 = load ptr, ptr %9, align 8, !tbaa !8
  store ptr %34, ptr %12, align 8, !tbaa !8
  %35 = load ptr, ptr %10, align 8, !tbaa !9
  %36 = load i32, ptr %35, align 4, !tbaa !13
  store i32 %36, ptr %14, align 4, !tbaa !13
  store i32 0, ptr %13, align 4, !tbaa !13
  br label %37

37:                                               ; preds = %55, %33
  %38 = load i32, ptr %13, align 4, !tbaa !13
  %39 = load i32, ptr %14, align 4, !tbaa !13
  %40 = icmp slt i32 %38, %39
  br i1 %40, label %41, label %58

41:                                               ; preds = %37
  %42 = load ptr, ptr %8, align 8, !tbaa !8
  %43 = load ptr, ptr %12, align 8, !tbaa !8
  %44 = load i32, ptr %13, align 4, !tbaa !13
  %45 = sext i32 %44 to i64
  %46 = getelementptr inbounds %struct.pmix_topology_t, ptr %43, i64 %45
  %47 = load ptr, ptr %7, align 8, !tbaa !3
  %48 = call i32 @pmix_hwloc_unpack_topology(ptr noundef %42, ptr noundef %46, ptr noundef %47)
  store i32 %48, ptr %15, align 4, !tbaa !13
  %49 = load i32, ptr %15, align 4, !tbaa !13
  %50 = icmp ne i32 0, %49
  br i1 %50, label %51, label %54

51:                                               ; preds = %41
  %52 = load ptr, ptr %10, align 8, !tbaa !9
  store i32 0, ptr %52, align 4, !tbaa !13
  %53 = load i32, ptr %15, align 4, !tbaa !13
  store i32 %53, ptr %6, align 4
  store i32 1, ptr %16, align 4
  br label %59

54:                                               ; preds = %41
  br label %55

55:                                               ; preds = %54
  %56 = load i32, ptr %13, align 4, !tbaa !13
  %57 = add nsw i32 %56, 1
  store i32 %57, ptr %13, align 4, !tbaa !13
  br label %37, !llvm.loop !211

58:                                               ; preds = %37
  store i32 0, ptr %6, align 4
  store i32 1, ptr %16, align 4
  br label %59

59:                                               ; preds = %58, %51
  call void @llvm.lifetime.end.p0(i64 4, ptr %15) #11
  call void @llvm.lifetime.end.p0(i64 4, ptr %14) #11
  call void @llvm.lifetime.end.p0(i64 4, ptr %13) #11
  call void @llvm.lifetime.end.p0(i64 8, ptr %12) #11
  %60 = load i32, ptr %6, align 4
  ret i32 %60
}